target datalayout = "e-m:e-p270:32:32-p271:32:32-p272:64:64-i64:64-i128:128-f80:128-n8:16:32:64-S128"
target triple = "x86_64-pc-linux-gnu"

%struct.AVFilterContext = type { ptr, ptr, ptr, ptr, ptr, i32, ptr, ptr, i32, ptr, ptr, i32, i32, ptr, ptr, ptr, ptr, i32, ptr, i32, i32 }
%struct.AudioSurroundContext = type { ptr, %struct.AVChannelLayout, %struct.AVChannelLayout, float, float, [9 x float], [9 x float], i32, float, float, float, i32, i32, float, float, float, float, [9 x float], [9 x float], ptr, ptr, i32, i32, i32, i32, float, float, i32, i32, ptr, ptr, ptr, ptr, ptr, ptr, ptr, ptr, ptr, ptr, ptr, ptr, ptr, ptr, ptr, ptr, ptr, ptr, ptr, i32, i32, ptr, ptr, ptr, ptr, ptr, ptr, ptr, ptr, ptr }
%struct.AVChannelLayout = type { i32, i32, %union.anon.1, ptr }
%union.anon.1 = type { i64 }
%struct.AVFilterFormatsConfig = type { ptr, ptr, ptr, ptr, ptr }
%struct.AVFilterLink = type { ptr, ptr, ptr, ptr, i32, i32, i32, i32, %struct.AVRational, i32, i32, i32, %struct.AVChannelLayout, %struct.AVRational, ptr, i32, %struct.AVFilterFormatsConfig, %struct.AVFilterFormatsConfig }
%struct.AVRational = type { i32, i32 }
%struct.AVFrame = type { [8 x ptr], [8 x i32], ptr, i32, i32, i32, i32, i32, %struct.AVRational, i64, i64, %struct.AVRational, i32, ptr, i32, i32, [8 x ptr], ptr, i32, ptr, i32, i32, i32, i32, i32, i32, i32, i64, ptr, i32, ptr, ptr, i64, i64, i64, i64, ptr, %struct.AVChannelLayout, i64 }

; Function Attrs: inlinehint nounwind uwtable
define internal void @ff_outlink_set_status(ptr noundef %0, i32 noundef %1, i64 noundef %2) #4 {
  %4 = alloca ptr, align 8
  %5 = alloca i32, align 4
  %6 = alloca i64, align 8
  store ptr %0, ptr %4, align 8, !tbaa !70
  store i32 %1, ptr %5, align 4, !tbaa !47
  store i64 %2, ptr %6, align 8, !tbaa !34
  %7 = load ptr, ptr %4, align 8, !tbaa !70
  %8 = load i32, ptr %5, align 4, !tbaa !47
  %9 = load i64, ptr %6, align 8, !tbaa !34
  call void @ff_avfilter_link_set_in_status(ptr noundef %7, i32 noundef %8, i64 noundef %9)
  ret void
}

; Function Attrs: nounwind uwtable
define internal i32 @filter_frame(ptr noundef %0, ptr noundef %1) #1 {
  %3 = alloca i32, align 4
  %4 = alloca ptr, align 8
  %5 = alloca ptr, align 8
  %6 = alloca ptr, align 8
  %7 = alloca ptr, align 8
  %8 = alloca ptr, align 8
  %9 = alloca ptr, align 8
  %10 = alloca i32, align 4
  store ptr %0, ptr %4, align 8, !tbaa !70
  store ptr %1, ptr %5, align 8, !tbaa !73
  call void @llvm.lifetime.start.p0(i64 8, ptr %6) #12
  %11 = load ptr, ptr %4, align 8, !tbaa !70
  %12 = getelementptr inbounds nuw %struct.AVFilterLink, ptr %11, i32 0, i32 2
  %13 = load ptr, ptr %12, align 8, !tbaa !74
  store ptr %13, ptr %6, align 8, !tbaa !4
  call void @llvm.lifetime.start.p0(i64 8, ptr %7) #12
  %14 = load ptr, ptr %6, align 8, !tbaa !4
  %15 = getelementptr inbounds nuw %struct.AVFilterContext, ptr %14, i32 0, i32 7
  %16 = load ptr, ptr %15, align 8, !tbaa !72
  %17 = getelementptr inbounds ptr, ptr %16, i64 0
  %18 = load ptr, ptr %17, align 8, !tbaa !70
  store ptr %18, ptr %7, align 8, !tbaa !70
  call void @llvm.lifetime.start.p0(i64 8, ptr %8) #12
  %19 = load ptr, ptr %6, align 8, !tbaa !4
  %20 = getelementptr inbounds nuw %struct.AVFilterContext, ptr %19, i32 0, i32 9
  %21 = load ptr, ptr %20, align 8, !tbaa !9
  store ptr %21, ptr %8, align 8, !tbaa !22
  call void @llvm.lifetime.start.p0(i64 8, ptr %9) #12
  %22 = load ptr, ptr %6, align 8, !tbaa !4
  %23 = load ptr, ptr %5, align 8, !tbaa !73
  %24 = load ptr, ptr %4, align 8, !tbaa !70
  %25 = getelementptr inbounds nuw %struct.AVFilterLink, ptr %24, i32 0, i32 12
  %26 = getelementptr inbounds nuw %struct.AVChannelLayout, ptr %25, i32 0, i32 1
  %27 = load i32, ptr %26, align 4, !tbaa !80
  %28 = load ptr, ptr %6, align 8, !tbaa !4
  %29 = call i32 @ff_filter_get_nb_threads(ptr noundef %28) #15
  %30 = icmp sgt i32 %27, %29
  br i1 %30, label %31, label %34

31:                                               ; preds = %2
  %32 = load ptr, ptr %6, align 8, !tbaa !4
  %33 = call i32 @ff_filter_get_nb_threads(ptr noundef %32) #15
  br label %39

34:                                               ; preds = %2
  %35 = load ptr, ptr %4, align 8, !tbaa !70
  %36 = getelementptr inbounds nuw %struct.AVFilterLink, ptr %35, i32 0, i32 12
  %37 = getelementptr inbounds nuw %struct.AVChannelLayout, ptr %36, i32 0, i32 1
  %38 = load i32, ptr %37, align 4, !tbaa !80
  br label %39

39:                                               ; preds = %34, %31
  %40 = phi i32 [ %33, %31 ], [ %38, %34 ]
  %41 = call i32 @ff_filter_execute(ptr noundef %22, ptr noundef @fft_channels, ptr noundef %23, ptr noundef null, i32 noundef %40)
  %42 = load ptr, ptr %8, align 8, !tbaa !22
  %43 = getelementptr inbounds nuw %struct.AudioSurroundContext, ptr %42, i32 0, i32 55
  %44 = load ptr, ptr %43, align 8, !tbaa !38
  %45 = load ptr, ptr %6, align 8, !tbaa !4
  call void %44(ptr noundef %45)
  %46 = load ptr, ptr %7, align 8, !tbaa !70
  %47 = load ptr, ptr %8, align 8, !tbaa !22
  %48 = getelementptr inbounds nuw %struct.AudioSurroundContext, ptr %47, i32 0, i32 49
  %49 = load i32, ptr %48, align 4, !tbaa !50
  %50 = call ptr @ff_get_audio_buffer(ptr noundef %46, i32 noundef %49)
  store ptr %50, ptr %9, align 8, !tbaa !73
  %51 = load ptr, ptr %9, align 8, !tbaa !73
  %52 = icmp ne ptr %51, null
  br i1 %52, label %54, label %53

53:                                               ; preds = %39
  store i32 -12, ptr %3, align 4
  store i32 1, ptr %10, align 4
  br label %86

54:                                               ; preds = %39
  %55 = load ptr, ptr %6, align 8, !tbaa !4
  %56 = load ptr, ptr %9, align 8, !tbaa !73
  %57 = load ptr, ptr %7, align 8, !tbaa !70
  %58 = getelementptr inbounds nuw %struct.AVFilterLink, ptr %57, i32 0, i32 12
  %59 = getelementptr inbounds nuw %struct.AVChannelLayout, ptr %58, i32 0, i32 1
  %60 = load i32, ptr %59, align 4, !tbaa !80
  %61 = load ptr, ptr %6, align 8, !tbaa !4
  %62 = call i32 @ff_filter_get_nb_threads(ptr noundef %61) #15
  %63 = icmp sgt i32 %60, %62
  br i1 %63, label %64, label %67

64:                                               ; preds = %54
  %65 = load ptr, ptr %6, align 8, !tbaa !4
  %66 = call i32 @ff_filter_get_nb_threads(ptr noundef %65) #15
  br label %72

67:                                               ; preds = %54
  %68 = load ptr, ptr %7, align 8, !tbaa !70
  %69 = getelementptr inbounds nuw %struct.AVFilterLink, ptr %68, i32 0, i32 12
  %70 = getelementptr inbounds nuw %struct.AVChannelLayout, ptr %69, i32 0, i32 1
  %71 = load i32, ptr %70, align 4, !tbaa !80
  br label %72

72:                                               ; preds = %67, %64
  %73 = phi i32 [ %66, %64 ], [ %71, %67 ]
  %74 = call i32 @ff_filter_execute(ptr noundef %55, ptr noundef @ifft_channels, ptr noundef %56, ptr noundef null, i32 noundef %73)
  %75 = load ptr, ptr %9, align 8, !tbaa !73
  %76 = load ptr, ptr %5, align 8, !tbaa !73
  %77 = call i32 @av_frame_copy_props(ptr noundef %75, ptr noundef %76)
  %78 = load ptr, ptr %5, align 8, !tbaa !73
  %79 = getelementptr inbounds nuw %struct.AVFrame, ptr %78, i32 0, i32 5
  %80 = load i32, ptr %79, align 8, !tbaa !172
  %81 = load ptr, ptr %9, align 8, !tbaa !73
  %82 = getelementptr inbounds nuw %struct.AVFrame, ptr %81, i32 0, i32 5
  store i32 %80, ptr %82, align 8, !tbaa !172
  call void @av_frame_free(ptr noundef %5)
  %83 = load ptr, ptr %7, align 8, !tbaa !70
  %84 = load ptr, ptr %9, align 8, !tbaa !73
  %85 = call i32 @ff_filter_frame(ptr noundef %83, ptr noundef %84)
  store i32 %85, ptr %3, align 4
  store i32 1, ptr %10, align 4
  br label %86

86:                                               ; preds = %72, %53
  call void @llvm.lifetime.end.p0(i64 8, ptr %9) #12
  call void @llvm.lifetime.end.p0(i64 8, ptr %8) #12
  call void @llvm.lifetime.end.p0(i64 8, ptr %7) #12
  call void @llvm.lifetime.end.p0(i64 8, ptr %6) #12
  %87 = load i32, ptr %3, align 4
  ret i32 %87
}

; Function Attrs: nounwind uwtable
define internal i32 @activate(ptr noundef %0) #1 {
  %2 = alloca i32, align 4
  %3 = alloca ptr, align 8
  %4 = alloca ptr, align 8
  %5 = alloca ptr, align 8
  %6 = alloca ptr, align 8
  %7 = alloca ptr, align 8
  %8 = alloca i32, align 4
  %9 = alloca i32, align 4
  %10 = alloca i64, align 8
  %11 = alloca i32, align 4
  %12 = alloca i32, align 4
  store ptr %0, ptr %3, align 8, !tbaa !4
  call void @llvm.lifetime.start.p0(i64 8, ptr %4) #12
  %13 = load ptr, ptr %3, align 8, !tbaa !4
  %14 = getelementptr inbounds nuw %struct.AVFilterContext, ptr %13, i32 0, i32 4
  %15 = load ptr, ptr %14, align 8, !tbaa !69
  %16 = getelementptr inbounds ptr, ptr %15, i64 0
  %17 = load ptr, ptr %16, align 8, !tbaa !70
  store ptr %17, ptr %4, align 8, !tbaa !70
  call void @llvm.lifetime.start.p0(i64 8, ptr %5) #12
  %18 = load ptr, ptr %3, align 8, !tbaa !4
  %19 = getelementptr inbounds nuw %struct.AVFilterContext, ptr %18, i32 0, i32 7
  %20 = load ptr, ptr %19, align 8, !tbaa !72
  %21 = getelementptr inbounds ptr, ptr %20, i64 0
  %22 = load ptr, ptr %21, align 8, !tbaa !70
  store ptr %22, ptr %5, align 8, !tbaa !70
  call void @llvm.lifetime.start.p0(i64 8, ptr %6) #12
  %23 = load ptr, ptr %3, align 8, !tbaa !4
  %24 = getelementptr inbounds nuw %struct.AVFilterContext, ptr %23, i32 0, i32 9
  %25 = load ptr, ptr %24, align 8, !tbaa !9
  store ptr %25, ptr %6, align 8, !tbaa !22
  call void @llvm.lifetime.start.p0(i64 8, ptr %7) #12
  store ptr null, ptr %7, align 8, !tbaa !73
  call void @llvm.lifetime.start.p0(i64 4, ptr %8) #12
  store i32 0, ptr %8, align 4, !tbaa !47
  call void @llvm.lifetime.start.p0(i64 4, ptr %9) #12
  call void @llvm.lifetime.start.p0(i64 8, ptr %10) #12
  br label %26

26:                                               ; preds = %1
  call void @llvm.lifetime.start.p0(i64 4, ptr %11) #12
  %27 = load ptr, ptr %5, align 8, !tbaa !70
  %28 = call i32 @ff_outlink_get_status(ptr noundef %27)
  store i32 %28, ptr %11, align 4, !tbaa !47
  %29 = load i32, ptr %11, align 4, !tbaa !47
  %30 = icmp ne i32 %29, 0
  br i1 %30, label %31, label %34

31:                                               ; preds = %26
  %32 = load ptr, ptr %4, align 8, !tbaa !70
  %33 = load i32, ptr %11, align 4, !tbaa !47
  call void @ff_inlink_set_status(ptr noundef %32, i32 noundef %33)
  store i32 0, ptr %2, align 4
  store i32 1, ptr %12, align 4
  br label %35

34:                                               ; preds = %26
  store i32 0, ptr %12, align 4
  br label %35

35:                                               ; preds = %34, %31
  call void @llvm.lifetime.end.p0(i64 4, ptr %11) #12
  %36 = load i32, ptr %12, align 4
  switch i32 %36, label %91 [
    i32 0, label %37
  ]

37:                                               ; preds = %35
  br label %38

38:                                               ; preds = %37
  br label %39

39:                                               ; preds = %38
  %40 = load ptr, ptr %4, align 8, !tbaa !70
  %41 = load ptr, ptr %6, align 8, !tbaa !22
  %42 = getelementptr inbounds nuw %struct.AudioSurroundContext, ptr %41, i32 0, i32 49
  %43 = load i32, ptr %42, align 4, !tbaa !50
  %44 = load ptr, ptr %6, align 8, !tbaa !22
  %45 = getelementptr inbounds nuw %struct.AudioSurroundContext, ptr %44, i32 0, i32 49
  %46 = load i32, ptr %45, align 4, !tbaa !50
  %47 = call i32 @ff_inlink_consume_samples(ptr noundef %40, i32 noundef %43, i32 noundef %46, ptr noundef %7)
  store i32 %47, ptr %8, align 4, !tbaa !47
  %48 = load i32, ptr %8, align 4, !tbaa !47
  %49 = icmp slt i32 %48, 0
  br i1 %49, label %50, label %52

50:                                               ; preds = %39
  %51 = load i32, ptr %8, align 4, !tbaa !47
  store i32 %51, ptr %2, align 4
  store i32 1, ptr %12, align 4
  br label %91

52:                                               ; preds = %39
  %53 = load i32, ptr %8, align 4, !tbaa !47
  %54 = icmp sgt i32 %53, 0
  br i1 %54, label %55, label %59

55:                                               ; preds = %52
  %56 = load ptr, ptr %4, align 8, !tbaa !70
  %57 = load ptr, ptr %7, align 8, !tbaa !73
  %58 = call i32 @filter_frame(ptr noundef %56, ptr noundef %57)
  store i32 %58, ptr %8, align 4, !tbaa !47
  br label %59

59:                                               ; preds = %55, %52
  %60 = load i32, ptr %8, align 4, !tbaa !47
  %61 = icmp slt i32 %60, 0
  br i1 %61, label %62, label %64

62:                                               ; preds = %59
  %63 = load i32, ptr %8, align 4, !tbaa !47
  store i32 %63, ptr %2, align 4
  store i32 1, ptr %12, align 4
  br label %91

64:                                               ; preds = %59
  %65 = load ptr, ptr %4, align 8, !tbaa !70
  %66 = call i32 @ff_inlink_queued_samples(ptr noundef %65)
  %67 = load ptr, ptr %6, align 8, !tbaa !22
  %68 = getelementptr inbounds nuw %struct.AudioSurroundContext, ptr %67, i32 0, i32 49
  %69 = load i32, ptr %68, align 4, !tbaa !50
  %70 = icmp sge i32 %66, %69
  br i1 %70, label %71, label %73

71:                                               ; preds = %64
  %72 = load ptr, ptr %3, align 8, !tbaa !4
  call void @ff_filter_set_ready(ptr noundef %72, i32 noundef 10)
  store i32 0, ptr %2, align 4
  store i32 1, ptr %12, align 4
  br label %91

73:                                               ; preds = %64
  %74 = load ptr, ptr %4, align 8, !tbaa !70
  %75 = call i32 @ff_inlink_acknowledge_status(ptr noundef %74, ptr noundef %9, ptr noundef %10)
  %76 = icmp ne i32 %75, 0
  br i1 %76, label %77, label %81

77:                                               ; preds = %73
  %78 = load ptr, ptr %5, align 8, !tbaa !70
  %79 = load i32, ptr %9, align 4, !tbaa !47
  %80 = load i64, ptr %10, align 8, !tbaa !34
  call void @ff_outlink_set_status(ptr noundef %78, i32 noundef %79, i64 noundef %80)
  store i32 0, ptr %2, align 4
  store i32 1, ptr %12, align 4
  br label %91

81:                                               ; preds = %73
  br label %82

82:                                               ; preds = %81
  %83 = load ptr, ptr %5, align 8, !tbaa !70
  %84 = call i32 @ff_outlink_frame_wanted(ptr noundef %83)
  %85 = icmp ne i32 %84, 0
  br i1 %85, label %86, label %88

86:                                               ; preds = %82
  %87 = load ptr, ptr %4, align 8, !tbaa !70
  call void @ff_inlink_request_frame(ptr noundef %87)
  store i32 0, ptr %2, align 4
  store i32 1, ptr %12, align 4
  br label %91

88:                                               ; preds = %82
  br label %89

89:                                               ; preds = %88
  br label %90

90:                                               ; preds = %89
  store i32 -1497649742, ptr %2, align 4
  store i32 1, ptr %12, align 4
  br label %91

91:                                               ; preds = %90, %86, %77, %71, %62, %50, %35
  call void @llvm.lifetime.end.p0(i64 8, ptr %10) #12
  call void @llvm.lifetime.end.p0(i64 4, ptr %9) #12
  call void @llvm.lifetime.end.p0(i64 4, ptr %8) #12
  call void @llvm.lifetime.end.p0(i64 8, ptr %7) #12
  call void @llvm.lifetime.end.p0(i64 8, ptr %6) #12
  call void @llvm.lifetime.end.p0(i64 8, ptr %5) #12
  call void @llvm.lifetime.end.p0(i64 8, ptr %4) #12
  %92 = load i32, ptr %2, align 4
  ret i32 %92
}