; Function Attrs: nounwind uwtable
define internal range(i32 -2147483648, 1) i32 @activate(ptr noundef %0) #1 {
  %2 = alloca ptr, align 8
  %3 = alloca ptr, align 8
  %4 = alloca i32, align 4
  %5 = alloca i64, align 8
  %6 = getelementptr inbounds nuw i8, ptr %0, i64 32
  %7 = load ptr, ptr %6, align 8, !tbaa !92
  %8 = load ptr, ptr %7, align 8, !tbaa !93
  %9 = getelementptr inbounds nuw i8, ptr %0, i64 56
  %10 = load ptr, ptr %9, align 8, !tbaa !95
  %11 = load ptr, ptr %10, align 8, !tbaa !93
  %12 = getelementptr inbounds nuw i8, ptr %0, i64 72
  %13 = load ptr, ptr %12, align 8, !tbaa !4
  call void @llvm.lifetime.start.p0(i64 8, ptr nonnull %3) #14
  store ptr null, ptr %3, align 8, !tbaa !96
  call void @llvm.lifetime.start.p0(i64 4, ptr nonnull %4) #14
  call void @llvm.lifetime.start.p0(i64 8, ptr nonnull %5) #14
  %14 = tail call i32 @ff_outlink_get_status(ptr noundef %11) #14
  %.not = icmp eq i32 %14, 0
  br i1 %.not, label %.critedge, label %15

15:                                               ; preds = %1
  tail call void @ff_inlink_set_status(ptr noundef %8, i32 noundef %14) #14
  br label %59

.critedge:                                        ; preds = %1
  %16 = getelementptr inbounds nuw i8, ptr %13, i64 452
  %17 = load i32, ptr %16, align 4, !tbaa !62
  %18 = call i32 @ff_inlink_consume_samples(ptr noundef %8, i32 noundef %17, i32 noundef %17, ptr noundef nonnull %3) #14
  %19 = icmp slt i32 %18, 0
  br i1 %19, label %59, label %20

20:                                               ; preds = %.critedge
  %.not29 = icmp eq i32 %18, 0
  br i1 %.not29, label %.thread, label %21

21:                                               ; preds = %20
  %22 = load ptr, ptr %3, align 8, !tbaa !96
  %23 = getelementptr i8, ptr %8, i64 16
  %.val = load ptr, ptr %23, align 8, !tbaa !97
  %24 = getelementptr i8, ptr %8, i64 76
  %.val33 = load i32, ptr %24, align 4, !tbaa !104
  call void @llvm.lifetime.start.p0(i64 8, ptr nonnull %2)
  store ptr %22, ptr %2, align 8, !tbaa !96
  %25 = getelementptr inbounds nuw i8, ptr %.val, i64 56
  %26 = load ptr, ptr %25, align 8, !tbaa !95
  %27 = load ptr, ptr %26, align 8, !tbaa !93
  %28 = getelementptr inbounds nuw i8, ptr %.val, i64 72
  %29 = load ptr, ptr %28, align 8, !tbaa !4
  %30 = call i32 @ff_filter_get_nb_threads(ptr noundef %.val) #16
  %..i = call i32 @llvm.smin.i32(i32 %.val33, i32 %30)
  %31 = call i32 @ff_filter_execute(ptr noundef %.val, ptr noundef nonnull @fft_channels, ptr noundef %22, ptr noundef null, i32 noundef %..i) #14
  %32 = getelementptr inbounds nuw i8, ptr %29, i64 496
  %33 = load ptr, ptr %32, align 8, !tbaa !32
  call void %33(ptr noundef %.val) #14
  %34 = getelementptr inbounds nuw i8, ptr %29, i64 452
  %35 = load i32, ptr %34, align 4, !tbaa !62
  %36 = call ptr @ff_get_audio_buffer(ptr noundef %27, i32 noundef %35) #14
  %.not.i = icmp eq ptr %36, null
  br i1 %.not.i, label %.thread35, label %37

.thread35:                                        ; preds = %21
  call void @llvm.lifetime.end.p0(i64 8, ptr nonnull %2)
  br label %59

37:                                               ; preds = %21
  %38 = getelementptr inbounds nuw i8, ptr %27, i64 76
  %39 = load i32, ptr %38, align 4, !tbaa !104
  %40 = call i32 @ff_filter_get_nb_threads(ptr noundef nonnull %.val) #16
  %.28.i = call i32 @llvm.smin.i32(i32 %39, i32 %40)
  %41 = call i32 @ff_filter_execute(ptr noundef nonnull %.val, ptr noundef nonnull @ifft_channels, ptr noundef nonnull %36, ptr noundef null, i32 noundef %.28.i) #14
  %42 = call i32 @av_frame_copy_props(ptr noundef nonnull %36, ptr noundef %22) #14
  %43 = getelementptr inbounds nuw i8, ptr %22, i64 112
  %44 = load i32, ptr %43, align 8, !tbaa !105
  %45 = getelementptr inbounds nuw i8, ptr %36, i64 112
  store i32 %44, ptr %45, align 8, !tbaa !105
  call void @av_frame_free(ptr noundef nonnull %2) #14
  %46 = call i32 @ff_filter_frame(ptr noundef %27, ptr noundef nonnull %36) #14
  call void @llvm.lifetime.end.p0(i64 8, ptr nonnull %2)
  %47 = icmp slt i32 %46, 0
  br i1 %47, label %59, label %.thread

.thread:                                          ; preds = %20, %37
  %48 = call i32 @ff_inlink_queued_samples(ptr noundef %8) #14
  %49 = load i32, ptr %16, align 4, !tbaa !62
  %.not30 = icmp slt i32 %48, %49
  br i1 %.not30, label %51, label %50

50:                                               ; preds = %.thread
  call void @ff_filter_set_ready(ptr noundef nonnull %0, i32 noundef 10) #14
  br label %59

51:                                               ; preds = %.thread
  %52 = call i32 @ff_inlink_acknowledge_status(ptr noundef %8, ptr noundef nonnull %4, ptr noundef nonnull %5) #14
  %.not31 = icmp eq i32 %52, 0
  br i1 %.not31, label %56, label %53

53:                                               ; preds = %51
  %54 = load i32, ptr %4, align 4, !tbaa !86
  %55 = load i64, ptr %5, align 8, !tbaa !111
  call void @ff_avfilter_link_set_in_status(ptr noundef %11, i32 noundef %54, i64 noundef %55) #14
  br label %59

56:                                               ; preds = %51
  %57 = call i32 @ff_outlink_frame_wanted(ptr noundef %11) #14
  %.not32 = icmp eq i32 %57, 0
  br i1 %.not32, label %59, label %58

58:                                               ; preds = %56
  call void @ff_inlink_request_frame(ptr noundef %8) #14
  br label %59

59:                                               ; preds = %.thread35, %15, %56, %37, %.critedge, %58, %53, %50
  %.1 = phi i32 [ 0, %50 ], [ 0, %53 ], [ 0, %58 ], [ 0, %15 ], [ %18, %.critedge ], [ %46, %37 ], [ -1497649742, %56 ], [ -12, %.thread35 ]
  call void @llvm.lifetime.end.p0(i64 8, ptr nonnull %5) #14
  call void @llvm.lifetime.end.p0(i64 4, ptr nonnull %4) #14
  call void @llvm.lifetime.end.p0(i64 8, ptr nonnull %3) #14
  ret i32 %.1
}